target datalayout = "e-m:e-p270:32:32-p271:32:32-p272:64:64-i64:64-i128:128-f80:128-n8:16:32:64-S128"
target triple = "x86_64-pc-linux-gnu"

%struct.dt_pthread_mutex_t = type { %union.pthread_mutex_t }
%union.pthread_mutex_t = type { %struct.__pthread_mutex_s }
%struct.__pthread_mutex_s = type { i32, i32, i32, i32, i32, i16, i16, %struct.__pthread_internal_list }
%struct.__pthread_internal_list = type { ptr, ptr }
%struct.dt_iop_module_t = type { i32, ptr, ptr, ptr, ptr, ptr, ptr, ptr, ptr, ptr, ptr, ptr, ptr, ptr, ptr, ptr, ptr, ptr, ptr, ptr, ptr, ptr, ptr, ptr, ptr, ptr, ptr, ptr, ptr, ptr, ptr, ptr, ptr, ptr, ptr, ptr, ptr, ptr, ptr, ptr, ptr, ptr, ptr, ptr, ptr, ptr, ptr, ptr, ptr, ptr, ptr, ptr, ptr, ptr, ptr, ptr, ptr, [20 x i8], i32, i32, i32, i32, i32, i32, i32, [8 x i8], [4 x float], [4 x float], [4 x float], [4 x float], [4 x float], [4 x float], ptr, %struct.dt_dev_histogram_stats_t, [4 x i32], i32, i32, ptr, i32, i32, ptr, ptr, i32, ptr, %struct.dt_pthread_mutex_t, ptr, ptr, ptr, ptr, %struct.anon.4, ptr, ptr, ptr, ptr, ptr, ptr, ptr, i32, ptr, ptr, ptr, ptr, ptr, ptr, ptr, i32, ptr, i32, [128 x i8], i32, ptr, ptr, i32, [12 x i8] }
%struct.dt_dev_histogram_stats_t = type { i32, i64, i32, i32 }
%struct.anon.4 = type { %struct.anon.5, %struct.anon.6 }
%struct.anon.5 = type { ptr, ptr }
%struct.anon.6 = type { ptr, i32 }

@.str.101 = private unnamed_addr constant [22 x i8] c"not that many sliders\00", align 1

; Function Attrs: nounwind uwtable
define internal float @_action_process_focus_slider(ptr noundef %0, i32 noundef %1, i32 noundef %2, float noundef %3) #0 {
  %5 = alloca float, align 4
  %6 = alloca ptr, align 8
  %7 = alloca i32, align 4
  %8 = alloca i32, align 4
  %9 = alloca float, align 4
  %10 = alloca ptr, align 8
  %11 = alloca i32, align 4
  store ptr %0, ptr %6, align 8, !tbaa !32
  store i32 %1, ptr %7, align 4, !tbaa !13
  store i32 %2, ptr %8, align 4, !tbaa !13
  store float %3, ptr %9, align 4, !tbaa !130
  call void @llvm.lifetime.start.p0(i64 8, ptr %10) #13
  %12 = load ptr, ptr %6, align 8, !tbaa !32
  %13 = getelementptr inbounds nuw %struct.dt_iop_module_t, ptr %12, i32 0, i32 90
  %14 = load ptr, ptr %13, align 16, !tbaa !369
  store ptr %14, ptr %10, align 8, !tbaa !15
  %15 = call i32 @_find_nth_bauhaus(ptr noundef %10, ptr noundef %7, i32 noundef 1)
  %16 = icmp ne i32 %15, 0
  br i1 %16, label %17, label %22

17:                                               ; preds = %4
  %18 = load ptr, ptr %10, align 8, !tbaa !15
  %19 = load i32, ptr %8, align 4, !tbaa !13
  %20 = load float, ptr %9, align 4, !tbaa !130
  %21 = call reassoc nsz arcp contract afn float @_action_process_slider(ptr noundef %18, i32 noundef 0, i32 noundef %19, float noundef %20)
  store float %21, ptr %5, align 4
  store i32 1, ptr %11, align 4
  br label %29

22:                                               ; preds = %4
  %23 = load float, ptr %9, align 4, !tbaa !130
  %24 = fcmp reassoc nsz arcp contract afn une float %23, 0xC7EFFFFFE0000000
  br i1 %24, label %25, label %28

25:                                               ; preds = %22
  %26 = load ptr, ptr %6, align 8, !tbaa !32
  %27 = call ptr @dcgettext(ptr noundef null, ptr noundef @.str.101, i32 noundef 5) #13
  call void (ptr, ptr, ptr, ...) @dt_action_widget_toast(ptr noundef %26, ptr noundef null, ptr noundef %27)
  br label %28

28:                                               ; preds = %25, %22
  store float 0xC7EFFFFFE0000000, ptr %5, align 4
  store i32 1, ptr %11, align 4
  br label %29

29:                                               ; preds = %28, %17
  call void @llvm.lifetime.end.p0(i64 8, ptr %10) #13
  %30 = load float, ptr %5, align 4
  ret float %30
}